target datalayout = "e-m:e-p270:32:32-p271:32:32-p272:64:64-i64:64-i128:128-f80:128-n8:16:32:64-S128"
target triple = "x86_64-unknown-linux-gnu"

%struct.ssl_st = type { i32, i16, i16, ptr, ptr, ptr, ptr, ptr, i32, i32, ptr, ptr, i32, i32, ptr, ptr, ptr, ptr, ptr, ptr, ptr, ptr, i32, i32, [32 x i8], ptr, ptr, ptr, ptr, ptr, ptr, ptr, i64, %struct.crypto_ex_data_st, ptr, i32, i32, i32, i32, i16, ptr, i32, i64, ptr, ptr, ptr, ptr, ptr, ptr, i32, i32, ptr, ptr, i8, i8, i32 }
%struct.crypto_ex_data_st = type { ptr }
%struct.ssl3_state_st = type { [8 x i8], [8 x i8], [32 x i8], [32 x i8], i8, i8, %struct.ssl3_buffer_st, %struct.ssl3_buffer_st, %struct.ssl3_record_st, i8, i32, i32, i32, i32, ptr, ptr, %struct.env_md_ctx_st, %struct.env_md_ctx_st, i8, i32, [2 x i8], i32, i8, i8, ptr, ptr, ptr, %struct.anon, [64 x i8], i8, [64 x i8], i8, i32, i32, ptr, i64, ptr, i64, i8, [64 x i8] }
%struct.ssl3_buffer_st = type { ptr, i16, i16, i16 }
%struct.ssl3_record_st = type { i8, i16, ptr }
%struct.env_md_ctx_st = type { ptr, ptr, ptr, ptr }
%struct.anon = type { [64 x i8], i32, [64 x i8], i32, i64, i32, ptr, i32, i32, %union.anon, %union.anon.0, i8, i32, ptr, ptr, i64, ptr, i8, i8, i8, i8, i32, i8, ptr, i64, i8, ptr, i8, i8, i8, %struct.ssl_ecdh_ctx_st, ptr, i16 }
%union.anon = type { i32 }
%union.anon.0 = type { i16 }
%struct.ssl_ecdh_ctx_st = type { ptr, ptr }

; Function Attrs: nounwind uwtable
define hidden i64 @SSL_get0_certificate_types(ptr noundef %ssl, ptr noundef %out_types) #0 {
entry:
  %retval = alloca i64, align 8
  %ssl.addr = alloca ptr, align 8
  %out_types.addr = alloca ptr, align 8
  store ptr %ssl, ptr %ssl.addr, align 8
  store ptr %out_types, ptr %out_types.addr, align 8
  %0 = load ptr, ptr %ssl.addr, align 8
  %server = getelementptr inbounds %struct.ssl_st, ptr %0, i32 0, i32 54
  %bf.load = load i8, ptr %server, align 1
  %bf.lshr = lshr i8 %bf.load, 1
  %bf.clear = and i8 %bf.lshr, 1
  %bf.cast = zext i8 %bf.clear to i32
  %tobool = icmp ne i32 %bf.cast, 0
  br i1 %tobool, label %if.then, label %lor.lhs.false

lor.lhs.false:                                    ; preds = %entry
  %1 = load ptr, ptr %ssl.addr, align 8
  %s3 = getelementptr inbounds %struct.ssl_st, ptr %1, i32 0, i32 14
  %2 = load ptr, ptr %s3, align 8
  %tmp = getelementptr inbounds %struct.ssl3_state_st, ptr %2, i32 0, i32 27
  %cert_req = getelementptr inbounds %struct.anon, ptr %tmp, i32 0, i32 12
  %3 = load i32, ptr %cert_req, align 8
  %tobool1 = icmp ne i32 %3, 0
  br i1 %tobool1, label %if.end, label %if.then

if.then:                                          ; preds = %lor.lhs.false, %entry
  %4 = load ptr, ptr %out_types.addr, align 8
  store ptr null, ptr %4, align 8
  store i64 0, ptr %retval, align 8
  br label %return

if.end:                                           ; preds = %lor.lhs.false
  %5 = load ptr, ptr %ssl.addr, align 8
  %s32 = getelementptr inbounds %struct.ssl_st, ptr %5, i32 0, i32 14
  %6 = load ptr, ptr %s32, align 8
  %tmp3 = getelementptr inbounds %struct.ssl3_state_st, ptr %6, i32 0, i32 27
  %certificate_types = getelementptr inbounds %struct.anon, ptr %tmp3, i32 0, i32 14
  %7 = load ptr, ptr %certificate_types, align 8
  %8 = load ptr, ptr %out_types.addr, align 8
  store ptr %7, ptr %8, align 8
  %9 = load ptr, ptr %ssl.addr, align 8
  %s34 = getelementptr inbounds %struct.ssl_st, ptr %9, i32 0, i32 14
  %10 = load ptr, ptr %s34, align 8
  %tmp5 = getelementptr inbounds %struct.ssl3_state_st, ptr %10, i32 0, i32 27
  %num_certificate_types = getelementptr inbounds %struct.anon, ptr %tmp5, i32 0, i32 15
  %11 = load i64, ptr %num_certificate_types, align 8
  store i64 %11, ptr %retval, align 8
  br label %return

return:                                           ; preds = %if.end, %if.then
  %12 = load i64, ptr %retval, align 8
  ret i64 %12
}