; Function Attrs: mustprogress nofree norecurse nosync nounwind willreturn memory(read, argmem: readwrite, inaccessiblemem: none) uwtable
define hidden i64 @SSL_get0_certificate_types(ptr noundef readonly captures(none) %ssl, ptr noundef writeonly captures(none) initializes((0, 8)) %out_types) local_unnamed_addr #10 {
entry:
  %server = getelementptr inbounds nuw i8, ptr %ssl, i64 385
  %bf.load = load i8, ptr %server, align 1
  %0 = and i8 %bf.load, 2
  %tobool.not = icmp eq i8 %0, 0
  br i1 %tobool.not, label %lor.lhs.false, label %if.then

lor.lhs.false:                                    ; preds = %entry
  %s3 = getelementptr inbounds nuw i8, ptr %ssl, i64 80
  %1 = load ptr, ptr %s3, align 8
  %cert_req = getelementptr inbounds nuw i8, ptr %1, i64 464
  %2 = load i32, ptr %cert_req, align 8
  %tobool1.not = icmp eq i32 %2, 0
  br i1 %tobool1.not, label %if.then, label %if.end

if.then:                                          ; preds = %lor.lhs.false, %entry
  store ptr null, ptr %out_types, align 8
  br label %return

if.end:                                           ; preds = %lor.lhs.false
  %certificate_types = getelementptr inbounds nuw i8, ptr %1, i64 480
  %3 = load ptr, ptr %certificate_types, align 8
  store ptr %3, ptr %out_types, align 8
  %4 = load ptr, ptr %s3, align 8
  %num_certificate_types = getelementptr inbounds nuw i8, ptr %4, i64 488
  %5 = load i64, ptr %num_certificate_types, align 8
  br label %return

return:                                           ; preds = %if.end, %if.then
  %retval.0 = phi i64 [ 0, %if.then ], [ %5, %if.end ]
  ret i64 %retval.0
}